target datalayout = "e-m:e-p270:32:32-p271:32:32-p272:64:64-i64:64-i128:128-f80:128-n8:16:32:64-S128"
target triple = "x86_64-pc-linux-gnu"

%"class.glslang::TType" = type { ptr, i32, [4 x i8], %"class.glslang::TQualifier", ptr, %union.anon, ptr, ptr, %"struct.glslang::TSampler", ptr, ptr }
%"class.glslang::TQualifier" = type <{ ptr, i64, i8, [3 x i8], i32, i32, i64, i64, i8, i8, i8, i8, i8, [3 x i8], i32, i8, i8, i8, i8, i32, ptr, i8, i8, [6 x i8] }>
%union.anon = type { ptr }
%"struct.glslang::TSampler" = type { i32 }
%"class.glslang::TConstUnionArray" = type { ptr, ptr }
%"class.glslang::TIntermConstantUnion" = type <{ %"class.glslang::TIntermTyped", %"class.glslang::TConstUnionArray", i8, [7 x i8] }>
%"class.glslang::TIntermTyped" = type { %class.TIntermNode, %"class.glslang::TType" }
%class.TIntermNode = type { ptr, %"struct.glslang::TSourceLoc" }
%"struct.glslang::TSourceLoc" = type { ptr, i32, i32, i32 }
%"struct.glslang::TTypeLoc" = type { ptr, %"struct.glslang::TSourceLoc" }
%"struct.std::_Vector_base.109" = type { %"struct.std::_Vector_base<glslang::TTypeLoc, glslang::pool_allocator<glslang::TTypeLoc>>::_Vector_impl" }
%"struct.std::_Vector_base<glslang::TTypeLoc, glslang::pool_allocator<glslang::TTypeLoc>>::_Vector_impl" = type { %"class.glslang::pool_allocator.110", %"struct.std::_Vector_base<glslang::TTypeLoc, glslang::pool_allocator<glslang::TTypeLoc>>::_Vector_impl_data" }
%"class.glslang::pool_allocator.110" = type { ptr }
%"struct.std::_Vector_base<glslang::TTypeLoc, glslang::pool_allocator<glslang::TTypeLoc>>::_Vector_impl_data" = type { ptr, ptr, ptr }

; Function Attrs: mustprogress nounwind uwtable
define linkonce_odr void @_ZN7glslang5TTypeD2Ev(ptr noundef nonnull align 8 dereferenceable(152) %0) unnamed_addr #0 comdat align 2 {
  %2 = alloca ptr, align 8
  store ptr %0, ptr %2, align 8
  ret void
}

; Function Attrs: mustprogress nounwind uwtable
define linkonce_odr void @_ZN7glslang16TConstUnionArrayD2Ev(ptr noundef nonnull align 8 dereferenceable(16) %0) unnamed_addr #0 comdat align 2 {
  %2 = alloca ptr, align 8
  store ptr %0, ptr %2, align 8
  ret void
}

; Function Attrs: mustprogress nounwind uwtable
define linkonce_odr noundef nonnull align 8 dereferenceable(16) ptr @_ZNK7glslang20TIntermConstantUnion13getConstArrayEv(ptr noundef nonnull align 8 dereferenceable(201) %0) #0 comdat align 2 {
  %2 = alloca ptr, align 8
  store ptr %0, ptr %2, align 8
  %3 = load ptr, ptr %2, align 8
  %4 = getelementptr inbounds %"class.glslang::TIntermConstantUnion", ptr %3, i32 0, i32 1
  ret ptr %4
}

; Function Attrs: mustprogress nounwind uwtable
define linkonce_odr noundef nonnull align 8 dereferenceable(32) ptr @_ZNKSt6vectorIN7glslang8TTypeLocENS0_14pool_allocatorIS1_EEEixEm(ptr noundef nonnull align 8 dereferenceable(32) %0, i64 noundef %1) #0 comdat align 2 {
  %3 = alloca ptr, align 8
  %4 = alloca i64, align 8
  store ptr %0, ptr %3, align 8
  store i64 %1, ptr %4, align 8
  %5 = load ptr, ptr %3, align 8
  %6 = getelementptr inbounds %"struct.std::_Vector_base.109", ptr %5, i32 0, i32 0
  %7 = getelementptr inbounds i8, ptr %6, i64 8
  %8 = getelementptr inbounds %"struct.std::_Vector_base<glslang::TTypeLoc, glslang::pool_allocator<glslang::TTypeLoc>>::_Vector_impl_data", ptr %7, i32 0, i32 0
  %9 = load ptr, ptr %8, align 8
  %10 = load i64, ptr %4, align 8
  %11 = getelementptr inbounds %"struct.glslang::TTypeLoc", ptr %9, i64 %10
  ret ptr %11
}

; Function Attrs: mustprogress nounwind uwtable
define linkonce_odr noundef ptr @_ZNK7glslang5TType9getStructEv(ptr noundef nonnull align 8 dereferenceable(152) %0) #0 comdat align 2 {
  %2 = alloca ptr, align 8
  store ptr %0, ptr %2, align 8
  %3 = load ptr, ptr %2, align 8
  %4 = getelementptr inbounds %"class.glslang::TType", ptr %3, i32 0, i32 5
  %5 = load ptr, ptr %4, align 8
  ret ptr %5
}

; Function Attrs: mustprogress nounwind uwtable
define linkonce_odr noundef zeroext i1 @_ZNK7glslang5TType9isCoopMatEv(ptr noundef nonnull align 8 dereferenceable(152) %0) #0 comdat align 2 {
  %2 = alloca ptr, align 8
  store ptr %0, ptr %2, align 8
  %3 = load ptr, ptr %2, align 8
  %4 = getelementptr inbounds %"class.glslang::TType", ptr %3, i32 0, i32 1
  %5 = load i32, ptr %4, align 8
  %6 = lshr i32 %5, 21
  %7 = and i32 %6, 1
  %8 = trunc i32 %7 to i1
  br i1 %8, label %15, label %9

9:                                                ; preds = %1
  %10 = getelementptr inbounds %"class.glslang::TType", ptr %3, i32 0, i32 1
  %11 = load i32, ptr %10, align 8
  %12 = lshr i32 %11, 22
  %13 = and i32 %12, 1
  %14 = trunc i32 %13 to i1
  br label %15

15:                                               ; preds = %9, %1
  %16 = phi i1 [ true, %1 ], [ %14, %9 ]
  ret i1 %16
}

; Function Attrs: mustprogress nounwind uwtable
define linkonce_odr noundef nonnull align 8 dereferenceable(80) ptr @_ZN7glslang5TType12getQualifierEv(ptr noundef nonnull align 8 dereferenceable(152) %0) unnamed_addr #0 comdat align 2 {
  %2 = alloca ptr, align 8
  store ptr %0, ptr %2, align 8
  %3 = load ptr, ptr %2, align 8
  %4 = getelementptr inbounds %"class.glslang::TType", ptr %3, i32 0, i32 3
  ret ptr %4
}

; Function Attrs: mustprogress nounwind uwtable
define noundef ptr @_ZN7glslang13TIntermediate15foldDereferenceEPNS_12TIntermTypedEiRKNS_10TSourceLocE(ptr noundef nonnull align 8 dereferenceable(2024) %0, ptr noundef %1, i32 noundef %2, ptr noundef nonnull align 8 dereferenceable(24) %3) #0 align 2 {
  %5 = alloca ptr, align 8
  %6 = alloca ptr, align 8
  %7 = alloca i32, align 4
  %8 = alloca ptr, align 8
  %9 = alloca %"class.glslang::TType", align 8
  %10 = alloca ptr, align 8
  %11 = alloca i32, align 4
  %12 = alloca i32, align 4
  %13 = alloca i32, align 4
  %14 = alloca %"class.glslang::TConstUnionArray", align 8
  store ptr %0, ptr %5, align 8
  store ptr %1, ptr %6, align 8
  store i32 %2, ptr %7, align 4
  store ptr %3, ptr %8, align 8
  %15 = load ptr, ptr %5, align 8
  %16 = load ptr, ptr %6, align 8
  %17 = load ptr, ptr %16, align 8
  %18 = getelementptr inbounds ptr, ptr %17, i64 30
  %19 = load ptr, ptr %18, align 8
  %20 = call noundef nonnull align 8 dereferenceable(152) ptr %19(ptr noundef nonnull align 8 dereferenceable(184) %16)
  %21 = load i32, ptr %7, align 4
  call void @_ZN7glslang5TTypeC2ERKS0_ib(ptr noundef nonnull align 8 dereferenceable(152) %9, ptr noundef nonnull align 8 dereferenceable(152) %20, i32 noundef %21, i1 noundef zeroext false)
  %22 = call noundef nonnull align 8 dereferenceable(80) ptr @_ZN7glslang5TType12getQualifierEv(ptr noundef nonnull align 8 dereferenceable(152) %9)
  %23 = getelementptr inbounds %"class.glslang::TQualifier", ptr %22, i32 0, i32 1
  %24 = load i64, ptr %23, align 8
  %25 = and i64 %24, -128
  %26 = or i64 %25, 2
  store i64 %26, ptr %23, align 8
  store ptr null, ptr %10, align 8
  %27 = call noundef i32 @_ZNK7glslang5TType20computeNumComponentsEv(ptr noundef nonnull align 8 dereferenceable(152) %9)
  store i32 %27, ptr %11, align 4
  %28 = load ptr, ptr %6, align 8
  %29 = load ptr, ptr %28, align 8
  %30 = getelementptr inbounds ptr, ptr %29, i64 30
  %31 = load ptr, ptr %30, align 8
  %32 = call noundef nonnull align 8 dereferenceable(152) ptr %31(ptr noundef nonnull align 8 dereferenceable(184) %28)
  %33 = call noundef zeroext i1 @_ZNK7glslang5TType9isCoopMatEv(ptr noundef nonnull align 8 dereferenceable(152) %32)
  br i1 %33, label %34, label %35

34:                                               ; preds = %4
  store i32 0, ptr %12, align 4
  br label %76

35:                                               ; preds = %4
  %36 = load ptr, ptr %6, align 8
  %37 = load ptr, ptr %36, align 8
  %38 = getelementptr inbounds ptr, ptr %37, i64 42
  %39 = load ptr, ptr %38, align 8
  %40 = call noundef zeroext i1 %39(ptr noundef nonnull align 8 dereferenceable(184) %36)
  br i1 %40, label %47, label %41

41:                                               ; preds = %35
  %42 = load ptr, ptr %6, align 8
  %43 = load ptr, ptr %42, align 8
  %44 = getelementptr inbounds ptr, ptr %43, i64 45
  %45 = load ptr, ptr %44, align 8
  %46 = call noundef zeroext i1 %45(ptr noundef nonnull align 8 dereferenceable(184) %42)
  br i1 %46, label %51, label %47

47:                                               ; preds = %41, %35
  %48 = load i32, ptr %11, align 4
  %49 = load i32, ptr %7, align 4
  %50 = mul nsw i32 %48, %49
  store i32 %50, ptr %12, align 4
  br label %75

51:                                               ; preds = %41
  store i32 0, ptr %12, align 4
  store i32 0, ptr %13, align 4
  br label %52

52:                                               ; preds = %71, %51
  %53 = load i32, ptr %13, align 4
  %54 = load i32, ptr %7, align 4
  %55 = icmp slt i32 %53, %54
  br i1 %55, label %56, label %74

56:                                               ; preds = %52
  %57 = load ptr, ptr %6, align 8
  %58 = load ptr, ptr %57, align 8
  %59 = getelementptr inbounds ptr, ptr %58, i64 30
  %60 = load ptr, ptr %59, align 8
  %61 = call noundef nonnull align 8 dereferenceable(152) ptr %60(ptr noundef nonnull align 8 dereferenceable(184) %57)
  %62 = call noundef ptr @_ZNK7glslang5TType9getStructEv(ptr noundef nonnull align 8 dereferenceable(152) %61)
  %63 = load i32, ptr %13, align 4
  %64 = sext i32 %63 to i64
  %65 = call noundef nonnull align 8 dereferenceable(32) ptr @_ZNKSt6vectorIN7glslang8TTypeLocENS0_14pool_allocatorIS1_EEEixEm(ptr noundef nonnull align 8 dereferenceable(32) %62, i64 noundef %64) #9
  %66 = getelementptr inbounds %"struct.glslang::TTypeLoc", ptr %65, i32 0, i32 0
  %67 = load ptr, ptr %66, align 8
  %68 = call noundef i32 @_ZNK7glslang5TType20computeNumComponentsEv(ptr noundef nonnull align 8 dereferenceable(152) %67)
  %69 = load i32, ptr %12, align 4
  %70 = add nsw i32 %69, %68
  store i32 %70, ptr %12, align 4
  br label %71

71:                                               ; preds = %56
  %72 = load i32, ptr %13, align 4
  %73 = add nsw i32 %72, 1
  store i32 %73, ptr %13, align 4
  br label %52, !llvm.loop !42

74:                                               ; preds = %52
  br label %75

75:                                               ; preds = %74, %47
  br label %76

76:                                               ; preds = %75, %34
  %77 = load ptr, ptr %6, align 8
  %78 = load ptr, ptr %77, align 8
  %79 = getelementptr inbounds ptr, ptr %78, i64 5
  %80 = load ptr, ptr %79, align 8
  %81 = call noundef ptr %80(ptr noundef nonnull align 8 dereferenceable(32) %77)
  %82 = call noundef nonnull align 8 dereferenceable(16) ptr @_ZNK7glslang20TIntermConstantUnion13getConstArrayEv(ptr noundef nonnull align 8 dereferenceable(201) %81)
  %83 = load i32, ptr %12, align 4
  %84 = load i32, ptr %11, align 4
  call void @_ZN7glslang16TConstUnionArrayC2ERKS0_ii(ptr noundef nonnull align 8 dereferenceable(16) %14, ptr noundef nonnull align 8 dereferenceable(16) %82, i32 noundef %83, i32 noundef %84)
  %85 = load ptr, ptr %6, align 8
  %86 = load ptr, ptr %85, align 8
  %87 = getelementptr inbounds ptr, ptr %86, i64 30
  %88 = load ptr, ptr %87, align 8
  %89 = call noundef nonnull align 8 dereferenceable(152) ptr %88(ptr noundef nonnull align 8 dereferenceable(184) %85)
  %90 = load ptr, ptr %8, align 8
  %91 = call noundef ptr @_ZNK7glslang13TIntermediate16addConstantUnionERKNS_16TConstUnionArrayERKNS_5TTypeERKNS_10TSourceLocEb(ptr noundef nonnull align 8 dereferenceable(2024) %15, ptr noundef nonnull align 8 dereferenceable(16) %14, ptr noundef nonnull align 8 dereferenceable(152) %89, ptr noundef nonnull align 8 dereferenceable(24) %90, i1 noundef zeroext false)
  store ptr %91, ptr %10, align 8
  call void @_ZN7glslang16TConstUnionArrayD2Ev(ptr noundef nonnull align 8 dereferenceable(16) %14) #9
  %92 = load ptr, ptr %10, align 8
  %93 = icmp eq ptr %92, null
  br i1 %93, label %94, label %96

94:                                               ; preds = %76
  %95 = load ptr, ptr %6, align 8
  store ptr %95, ptr %10, align 8
  br label %101

96:                                               ; preds = %76
  %97 = load ptr, ptr %10, align 8
  %98 = load ptr, ptr %97, align 8
  %99 = getelementptr inbounds ptr, ptr %98, i64 29
  %100 = load ptr, ptr %99, align 8
  call void %100(ptr noundef nonnull align 8 dereferenceable(184) %97, ptr noundef nonnull align 8 dereferenceable(152) %9)
  br label %101

101:                                              ; preds = %96, %94
  %102 = load ptr, ptr %10, align 8
  call void @_ZN7glslang5TTypeD2Ev(ptr noundef nonnull align 8 dereferenceable(152) %9) #9
  ret ptr %102
}