; Function Attrs: mustprogress nounwind uwtable
define noundef ptr @_ZN7glslang13TIntermediate15foldDereferenceEPNS_12TIntermTypedEiRKNS_10TSourceLocE(ptr noundef nonnull align 8 dereferenceable(2024) %0, ptr noundef %1, i32 noundef %2, ptr noundef nonnull align 8 dereferenceable(24) %3) local_unnamed_addr #0 align 2 {
  %5 = alloca %"class.glslang::TType", align 8
  %6 = alloca %"class.glslang::TConstUnionArray", align 8
  %7 = load ptr, ptr %1, align 8
  %8 = getelementptr inbounds nuw i8, ptr %7, i64 240
  %9 = load ptr, ptr %8, align 8
  %10 = tail call noundef nonnull align 8 dereferenceable(152) ptr %9(ptr noundef nonnull align 8 dereferenceable(184) %1) #10
  call void @_ZN7glslang5TTypeC2ERKS0_ib(ptr noundef nonnull align 8 dereferenceable(152) %5, ptr noundef nonnull align 8 dereferenceable(152) %10, i32 noundef %2, i1 noundef zeroext false)
  %11 = getelementptr inbounds nuw i8, ptr %5, i64 24
  %12 = load i64, ptr %11, align 8
  %13 = and i64 %12, -128
  %14 = or disjoint i64 %13, 2
  store i64 %14, ptr %11, align 8
  %15 = call noundef i32 @_ZNK7glslang5TType20computeNumComponentsEv(ptr noundef nonnull align 8 dereferenceable(152) %5)
  %16 = load ptr, ptr %1, align 8
  %17 = getelementptr inbounds nuw i8, ptr %16, i64 240
  %18 = load ptr, ptr %17, align 8
  %19 = call noundef nonnull align 8 dereferenceable(152) ptr %18(ptr noundef nonnull align 8 dereferenceable(184) %1) #10
  %20 = getelementptr inbounds nuw i8, ptr %19, i64 8
  %21 = load i32, ptr %20, align 8
  %22 = and i32 %21, 6291456
  %.not = icmp eq i32 %22, 0
  br i1 %.not, label %23, label %.loopexit

23:                                               ; preds = %4
  %24 = load ptr, ptr %1, align 8
  %25 = getelementptr inbounds nuw i8, ptr %24, i64 336
  %26 = load ptr, ptr %25, align 8
  %27 = call noundef zeroext i1 %26(ptr noundef nonnull align 8 dereferenceable(184) %1) #10
  br i1 %27, label %34, label %28

28:                                               ; preds = %23
  %29 = load ptr, ptr %1, align 8
  %30 = getelementptr inbounds nuw i8, ptr %29, i64 360
  %31 = load ptr, ptr %30, align 8
  %32 = call noundef zeroext i1 %31(ptr noundef nonnull align 8 dereferenceable(184) %1) #10
  br i1 %32, label %.preheader, label %34

.preheader:                                       ; preds = %28
  %33 = icmp sgt i32 %2, 0
  br i1 %33, label %.lr.ph.preheader, label %.loopexit

.lr.ph.preheader:                                 ; preds = %.preheader
  %wide.trip.count = zext nneg i32 %2 to i64
  br label %.lr.ph

34:                                               ; preds = %28, %23
  %35 = mul nsw i32 %15, %2
  br label %.loopexit

.lr.ph:                                           ; preds = %.lr.ph.preheader, %.lr.ph
  %indvars.iv = phi i64 [ 0, %.lr.ph.preheader ], [ %indvars.iv.next, %.lr.ph ]
  %.125 = phi i32 [ 0, %.lr.ph.preheader ], [ %47, %.lr.ph ]
  %36 = load ptr, ptr %1, align 8
  %37 = getelementptr inbounds nuw i8, ptr %36, i64 240
  %38 = load ptr, ptr %37, align 8
  %39 = call noundef nonnull align 8 dereferenceable(152) ptr %38(ptr noundef nonnull align 8 dereferenceable(184) %1) #10
  %40 = getelementptr inbounds nuw i8, ptr %39, i64 104
  %41 = load ptr, ptr %40, align 8
  %42 = getelementptr inbounds nuw i8, ptr %41, i64 8
  %43 = load ptr, ptr %42, align 8
  %44 = getelementptr inbounds nuw %"struct.glslang::TTypeLoc", ptr %43, i64 %indvars.iv
  %45 = load ptr, ptr %44, align 8
  %46 = call noundef i32 @_ZNK7glslang5TType20computeNumComponentsEv(ptr noundef nonnull align 8 dereferenceable(152) %45)
  %47 = add nsw i32 %46, %.125
  %indvars.iv.next = add nuw nsw i64 %indvars.iv, 1
  %exitcond.not = icmp eq i64 %indvars.iv.next, %wide.trip.count
  br i1 %exitcond.not, label %.loopexit, label %.lr.ph, !llvm.loop !47

.loopexit:                                        ; preds = %.lr.ph, %.preheader, %4, %34
  %.022 = phi i32 [ %35, %34 ], [ 0, %4 ], [ 0, %.preheader ], [ %47, %.lr.ph ]
  %48 = load ptr, ptr %1, align 8
  %49 = getelementptr inbounds nuw i8, ptr %48, i64 40
  %50 = load ptr, ptr %49, align 8
  %51 = call noundef ptr %50(ptr noundef nonnull align 8 dereferenceable(32) %1) #10
  %52 = getelementptr inbounds nuw i8, ptr %51, i64 184
  call void @_ZN7glslang16TConstUnionArrayC2ERKS0_ii(ptr noundef nonnull align 8 dereferenceable(16) %6, ptr noundef nonnull align 8 dereferenceable(16) %52, i32 noundef %.022, i32 noundef %15)
  %53 = load ptr, ptr %1, align 8
  %54 = getelementptr inbounds nuw i8, ptr %53, i64 240
  %55 = load ptr, ptr %54, align 8
  %56 = call noundef nonnull align 8 dereferenceable(152) ptr %55(ptr noundef nonnull align 8 dereferenceable(184) %1) #10
  %57 = call noundef ptr @_ZNK7glslang13TIntermediate16addConstantUnionERKNS_16TConstUnionArrayERKNS_5TTypeERKNS_10TSourceLocEb(ptr noundef nonnull align 8 dereferenceable(2024) %0, ptr noundef nonnull align 8 dereferenceable(16) %6, ptr noundef nonnull align 8 dereferenceable(152) %56, ptr noundef nonnull align 8 dereferenceable(24) %3, i1 noundef zeroext false) #10
  %58 = icmp eq ptr %57, null
  br i1 %58, label %63, label %59

59:                                               ; preds = %.loopexit
  %60 = load ptr, ptr %57, align 8
  %61 = getelementptr inbounds nuw i8, ptr %60, i64 232
  %62 = load ptr, ptr %61, align 8
  call void %62(ptr noundef nonnull align 8 dereferenceable(184) %57, ptr noundef nonnull align 8 dereferenceable(152) %5) #10
  br label %63

63:                                               ; preds = %.loopexit, %59
  %.023 = phi ptr [ %57, %59 ], [ %1, %.loopexit ]
  ret ptr %.023
}